target datalayout = "e-m:e-p270:32:32-p271:32:32-p272:64:64-i64:64-i128:128-f80:128-n8:16:32:64-S128"
target triple = "x86_64-pc-linux-gnu"

%struct.FunctionCallInfoBaseData = type { ptr, ptr, ptr, i32, i8, i16, [0 x %struct.NullableDatum] }
%struct.NullableDatum = type { i64, i8 }
%struct.TSQueryData = type { i32, i32, [0 x i8] }
%union.QueryItem = type { %struct.QueryOperand }
%struct.QueryOperand = type { i8, i8, i8, i32, i32 }

; Function Attrs: inlinehint nounwind uwtable
define internal i64 @PointerGetDatum(ptr noundef %0) #3 {
  %2 = alloca ptr, align 8
  store ptr %0, ptr %2, align 8
  %3 = load ptr, ptr %2, align 8
  %4 = ptrtoint ptr %3 to i64
  ret i64 %4
}

; Function Attrs: inlinehint nounwind uwtable
define internal ptr @DatumGetPointer(i64 noundef %0) #3 {
  %2 = alloca i64, align 8
  store i64 %0, ptr %2, align 8
  %3 = load i64, ptr %2, align 8
  %4 = inttoptr i64 %3 to ptr
  ret ptr %4
}

; Function Attrs: inlinehint nounwind uwtable
define internal ptr @DatumGetTSQuery(i64 noundef %0) #3 {
  %2 = alloca i64, align 8
  store i64 %0, ptr %2, align 8
  %3 = load i64, ptr %2, align 8
  %4 = call ptr @DatumGetPointer(i64 noundef %3)
  ret ptr %4
}

; Function Attrs: nounwind uwtable
define dso_local i64 @gin_extract_tsquery(ptr noundef %0) #0 {
  %2 = alloca ptr, align 8
  %3 = alloca ptr, align 8
  %4 = alloca ptr, align 8
  %5 = alloca ptr, align 8
  %6 = alloca ptr, align 8
  %7 = alloca ptr, align 8
  %8 = alloca ptr, align 8
  %9 = alloca ptr, align 8
  %10 = alloca i32, align 4
  %11 = alloca i32, align 4
  %12 = alloca ptr, align 8
  %13 = alloca ptr, align 8
  %14 = alloca ptr, align 8
  %15 = alloca ptr, align 8
  store ptr %0, ptr %2, align 8
  call void @llvm.lifetime.start.p0(i64 8, ptr %3) #5
  %16 = load ptr, ptr %2, align 8
  %17 = getelementptr inbounds nuw %struct.FunctionCallInfoBaseData, ptr %16, i32 0, i32 6
  %18 = getelementptr inbounds [0 x %struct.NullableDatum], ptr %17, i64 0, i64 0
  %19 = getelementptr inbounds nuw %struct.NullableDatum, ptr %18, i32 0, i32 0
  %20 = load i64, ptr %19, align 8
  %21 = call ptr @DatumGetTSQuery(i64 noundef %20)
  store ptr %21, ptr %3, align 8
  call void @llvm.lifetime.start.p0(i64 8, ptr %4) #5
  %22 = load ptr, ptr %2, align 8
  %23 = getelementptr inbounds nuw %struct.FunctionCallInfoBaseData, ptr %22, i32 0, i32 6
  %24 = getelementptr inbounds [0 x %struct.NullableDatum], ptr %23, i64 0, i64 1
  %25 = getelementptr inbounds nuw %struct.NullableDatum, ptr %24, i32 0, i32 0
  %26 = load i64, ptr %25, align 8
  %27 = call ptr @DatumGetPointer(i64 noundef %26)
  store ptr %27, ptr %4, align 8
  call void @llvm.lifetime.start.p0(i64 8, ptr %5) #5
  %28 = load ptr, ptr %2, align 8
  %29 = getelementptr inbounds nuw %struct.FunctionCallInfoBaseData, ptr %28, i32 0, i32 6
  %30 = getelementptr inbounds [0 x %struct.NullableDatum], ptr %29, i64 0, i64 3
  %31 = getelementptr inbounds nuw %struct.NullableDatum, ptr %30, i32 0, i32 0
  %32 = load i64, ptr %31, align 8
  %33 = call ptr @DatumGetPointer(i64 noundef %32)
  store ptr %33, ptr %5, align 8
  call void @llvm.lifetime.start.p0(i64 8, ptr %6) #5
  %34 = load ptr, ptr %2, align 8
  %35 = getelementptr inbounds nuw %struct.FunctionCallInfoBaseData, ptr %34, i32 0, i32 6
  %36 = getelementptr inbounds [0 x %struct.NullableDatum], ptr %35, i64 0, i64 4
  %37 = getelementptr inbounds nuw %struct.NullableDatum, ptr %36, i32 0, i32 0
  %38 = load i64, ptr %37, align 8
  %39 = call ptr @DatumGetPointer(i64 noundef %38)
  store ptr %39, ptr %6, align 8
  call void @llvm.lifetime.start.p0(i64 8, ptr %7) #5
  %40 = load ptr, ptr %2, align 8
  %41 = getelementptr inbounds nuw %struct.FunctionCallInfoBaseData, ptr %40, i32 0, i32 6
  %42 = getelementptr inbounds [0 x %struct.NullableDatum], ptr %41, i64 0, i64 6
  %43 = getelementptr inbounds nuw %struct.NullableDatum, ptr %42, i32 0, i32 0
  %44 = load i64, ptr %43, align 8
  %45 = call ptr @DatumGetPointer(i64 noundef %44)
  store ptr %45, ptr %7, align 8
  call void @llvm.lifetime.start.p0(i64 8, ptr %8) #5
  store ptr null, ptr %8, align 8
  %46 = load ptr, ptr %4, align 8
  store i32 0, ptr %46, align 4
  %47 = load ptr, ptr %3, align 8
  %48 = getelementptr inbounds nuw %struct.TSQueryData, ptr %47, i32 0, i32 1
  %49 = load i32, ptr %48, align 4
  %50 = icmp sgt i32 %49, 0
  br i1 %50, label %51, label %176

51:                                               ; preds = %1
  call void @llvm.lifetime.start.p0(i64 8, ptr %9) #5
  %52 = load ptr, ptr %3, align 8
  %53 = getelementptr inbounds nuw i8, ptr %52, i64 8
  store ptr %53, ptr %9, align 8
  call void @llvm.lifetime.start.p0(i64 4, ptr %10) #5
  call void @llvm.lifetime.start.p0(i64 4, ptr %11) #5
  call void @llvm.lifetime.start.p0(i64 8, ptr %12) #5
  call void @llvm.lifetime.start.p0(i64 8, ptr %13) #5
  %54 = load ptr, ptr %9, align 8
  %55 = call zeroext i1 @tsquery_requires_match(ptr noundef %54)
  br i1 %55, label %56, label %58

56:                                               ; preds = %51
  %57 = load ptr, ptr %7, align 8
  store i32 0, ptr %57, align 4
  br label %60

58:                                               ; preds = %51
  %59 = load ptr, ptr %7, align 8
  store i32 2, ptr %59, align 4
  br label %60

60:                                               ; preds = %58, %56
  store i32 0, ptr %11, align 4
  store i32 0, ptr %10, align 4
  br label %61

61:                                               ; preds = %79, %60
  %62 = load i32, ptr %10, align 4
  %63 = load ptr, ptr %3, align 8
  %64 = getelementptr inbounds nuw %struct.TSQueryData, ptr %63, i32 0, i32 1
  %65 = load i32, ptr %64, align 4
  %66 = icmp slt i32 %62, %65
  br i1 %66, label %67, label %82

67:                                               ; preds = %61
  %68 = load ptr, ptr %9, align 8
  %69 = load i32, ptr %10, align 4
  %70 = sext i32 %69 to i64
  %71 = getelementptr inbounds %union.QueryItem, ptr %68, i64 %70
  %72 = load i8, ptr %71, align 4
  %73 = sext i8 %72 to i32
  %74 = icmp eq i32 %73, 1
  br i1 %74, label %75, label %78

75:                                               ; preds = %67
  %76 = load i32, ptr %11, align 4
  %77 = add i32 %76, 1
  store i32 %77, ptr %11, align 4
  br label %78

78:                                               ; preds = %75, %67
  br label %79

79:                                               ; preds = %78
  %80 = load i32, ptr %10, align 4
  %81 = add i32 %80, 1
  store i32 %81, ptr %10, align 4
  br label %61, !llvm.loop !6

82:                                               ; preds = %61
  %83 = load i32, ptr %11, align 4
  %84 = load ptr, ptr %4, align 8
  store i32 %83, ptr %84, align 4
  %85 = load i32, ptr %11, align 4
  %86 = sext i32 %85 to i64
  %87 = mul i64 8, %86
  %88 = call ptr @palloc(i64 noundef %87)
  store ptr %88, ptr %8, align 8
  %89 = load i32, ptr %11, align 4
  %90 = sext i32 %89 to i64
  %91 = mul i64 1, %90
  %92 = call ptr @palloc(i64 noundef %91)
  %93 = load ptr, ptr %5, align 8
  store ptr %92, ptr %93, align 8
  store ptr %92, ptr %12, align 8
  %94 = load i32, ptr %11, align 4
  %95 = sext i32 %94 to i64
  %96 = mul i64 8, %95
  %97 = call ptr @palloc(i64 noundef %96)
  %98 = load ptr, ptr %6, align 8
  store ptr %97, ptr %98, align 8
  %99 = load ptr, ptr %3, align 8
  %100 = getelementptr inbounds nuw %struct.TSQueryData, ptr %99, i32 0, i32 1
  %101 = load i32, ptr %100, align 4
  %102 = sext i32 %101 to i64
  %103 = mul i64 4, %102
  %104 = call ptr @palloc0(i64 noundef %103)
  store ptr %104, ptr %13, align 8
  store i32 0, ptr %11, align 4
  store i32 0, ptr %10, align 4
  br label %105

105:                                              ; preds = %172, %82
  %106 = load i32, ptr %10, align 4
  %107 = load ptr, ptr %3, align 8
  %108 = getelementptr inbounds nuw %struct.TSQueryData, ptr %107, i32 0, i32 1
  %109 = load i32, ptr %108, align 4
  %110 = icmp slt i32 %106, %109
  br i1 %110, label %111, label %175

111:                                              ; preds = %105
  %112 = load ptr, ptr %9, align 8
  %113 = load i32, ptr %10, align 4
  %114 = sext i32 %113 to i64
  %115 = getelementptr inbounds %union.QueryItem, ptr %112, i64 %114
  %116 = load i8, ptr %115, align 4
  %117 = sext i8 %116 to i32
  %118 = icmp eq i32 %117, 1
  br i1 %118, label %119, label %171

119:                                              ; preds = %111
  call void @llvm.lifetime.start.p0(i64 8, ptr %14) #5
  %120 = load ptr, ptr %9, align 8
  %121 = load i32, ptr %10, align 4
  %122 = sext i32 %121 to i64
  %123 = getelementptr inbounds %union.QueryItem, ptr %120, i64 %122
  store ptr %123, ptr %14, align 8
  call void @llvm.lifetime.start.p0(i64 8, ptr %15) #5
  %124 = load ptr, ptr %3, align 8
  %125 = getelementptr inbounds nuw i8, ptr %124, i64 8
  %126 = load ptr, ptr %3, align 8
  %127 = getelementptr inbounds nuw %struct.TSQueryData, ptr %126, i32 0, i32 1
  %128 = load i32, ptr %127, align 4
  %129 = sext i32 %128 to i64
  %130 = mul i64 %129, 12
  %131 = getelementptr inbounds nuw i8, ptr %125, i64 %130
  %132 = load ptr, ptr %14, align 8
  %133 = getelementptr inbounds nuw %struct.QueryOperand, ptr %132, i32 0, i32 4
  %134 = load i32, ptr %133, align 4
  %135 = lshr i32 %134, 12
  %136 = sext i32 %135 to i64
  %137 = getelementptr inbounds i8, ptr %131, i64 %136
  %138 = load ptr, ptr %14, align 8
  %139 = getelementptr inbounds nuw %struct.QueryOperand, ptr %138, i32 0, i32 4
  %140 = load i32, ptr %139, align 4
  %141 = and i32 %140, 4095
  %142 = call ptr @cstring_to_text_with_len(ptr noundef %137, i32 noundef %141)
  store ptr %142, ptr %15, align 8
  %143 = load ptr, ptr %15, align 8
  %144 = call i64 @PointerGetDatum(ptr noundef %143)
  %145 = load ptr, ptr %8, align 8
  %146 = load i32, ptr %11, align 4
  %147 = sext i32 %146 to i64
  %148 = getelementptr inbounds i64, ptr %145, i64 %147
  store i64 %144, ptr %148, align 8
  %149 = load ptr, ptr %14, align 8
  %150 = getelementptr inbounds nuw %struct.QueryOperand, ptr %149, i32 0, i32 2
  %151 = load i8, ptr %150, align 2, !range !7, !noundef !8
  %152 = trunc i8 %151 to i1
  %153 = load ptr, ptr %12, align 8
  %154 = load i32, ptr %11, align 4
  %155 = sext i32 %154 to i64
  %156 = getelementptr inbounds i8, ptr %153, i64 %155
  %157 = zext i1 %152 to i8
  store i8 %157, ptr %156, align 1
  %158 = load ptr, ptr %13, align 8
  %159 = load ptr, ptr %6, align 8
  %160 = load ptr, ptr %159, align 8
  %161 = load i32, ptr %11, align 4
  %162 = sext i32 %161 to i64
  %163 = getelementptr inbounds ptr, ptr %160, i64 %162
  store ptr %158, ptr %163, align 8
  %164 = load i32, ptr %11, align 4
  %165 = load ptr, ptr %13, align 8
  %166 = load i32, ptr %10, align 4
  %167 = sext i32 %166 to i64
  %168 = getelementptr inbounds i32, ptr %165, i64 %167
  store i32 %164, ptr %168, align 4
  %169 = load i32, ptr %11, align 4
  %170 = add i32 %169, 1
  store i32 %170, ptr %11, align 4
  call void @llvm.lifetime.end.p0(i64 8, ptr %15) #5
  call void @llvm.lifetime.end.p0(i64 8, ptr %14) #5
  br label %171

171:                                              ; preds = %119, %111
  br label %172

172:                                              ; preds = %171
  %173 = load i32, ptr %10, align 4
  %174 = add i32 %173, 1
  store i32 %174, ptr %10, align 4
  br label %105, !llvm.loop !9

175:                                              ; preds = %105
  call void @llvm.lifetime.end.p0(i64 8, ptr %13) #5
  call void @llvm.lifetime.end.p0(i64 8, ptr %12) #5
  call void @llvm.lifetime.end.p0(i64 4, ptr %11) #5
  call void @llvm.lifetime.end.p0(i64 4, ptr %10) #5
  call void @llvm.lifetime.end.p0(i64 8, ptr %9) #5
  br label %176

176:                                              ; preds = %175, %1
  br label %177

177:                                              ; preds = %176
  %178 = load ptr, ptr %3, align 8
  %179 = load ptr, ptr %2, align 8
  %180 = getelementptr inbounds nuw %struct.FunctionCallInfoBaseData, ptr %179, i32 0, i32 6
  %181 = getelementptr inbounds [0 x %struct.NullableDatum], ptr %180, i64 0, i64 0
  %182 = getelementptr inbounds nuw %struct.NullableDatum, ptr %181, i32 0, i32 0
  %183 = load i64, ptr %182, align 8
  %184 = call ptr @DatumGetPointer(i64 noundef %183)
  %185 = icmp ne ptr %178, %184
  br i1 %185, label %186, label %188

186:                                              ; preds = %177
  %187 = load ptr, ptr %3, align 8
  call void @pfree(ptr noundef %187)
  br label %188

188:                                              ; preds = %186, %177
  br label %189

189:                                              ; preds = %188
  br label %190

190:                                              ; preds = %189
  %191 = load ptr, ptr %8, align 8
  %192 = call i64 @PointerGetDatum(ptr noundef %191)
  call void @llvm.lifetime.end.p0(i64 8, ptr %8) #5
  call void @llvm.lifetime.end.p0(i64 8, ptr %7) #5
  call void @llvm.lifetime.end.p0(i64 8, ptr %6) #5
  call void @llvm.lifetime.end.p0(i64 8, ptr %5) #5
  call void @llvm.lifetime.end.p0(i64 8, ptr %4) #5
  call void @llvm.lifetime.end.p0(i64 8, ptr %3) #5
  ret i64 %192
}