; Function Attrs: nounwind uwtable
define dso_local i64 @gin_extract_tsquery(ptr noundef readonly captures(none) %0) local_unnamed_addr #0 {
  %2 = getelementptr inbounds nuw i8, ptr %0, i64 32
  %3 = load i64, ptr %2, align 8
  %4 = inttoptr i64 %3 to ptr
  %5 = getelementptr inbounds nuw i8, ptr %0, i64 48
  %6 = load i64, ptr %5, align 8
  %7 = inttoptr i64 %6 to ptr
  %8 = getelementptr inbounds nuw i8, ptr %0, i64 80
  %9 = load i64, ptr %8, align 8
  %10 = inttoptr i64 %9 to ptr
  %11 = getelementptr inbounds nuw i8, ptr %0, i64 96
  %12 = load i64, ptr %11, align 8
  %13 = inttoptr i64 %12 to ptr
  %14 = getelementptr inbounds nuw i8, ptr %0, i64 128
  %15 = load i64, ptr %14, align 8
  store i32 0, ptr %7, align 4
  %16 = getelementptr inbounds nuw i8, ptr %4, i64 4
  %17 = load i32, ptr %16, align 4
  %18 = icmp sgt i32 %17, 0
  br i1 %18, label %19, label %.loopexit

19:                                               ; preds = %1
  %20 = inttoptr i64 %15 to ptr
  %21 = getelementptr inbounds nuw i8, ptr %4, i64 8
  %22 = tail call zeroext i1 @tsquery_requires_match(ptr noundef nonnull %21) #6
  %. = select i1 %22, i32 0, i32 2
  store i32 %., ptr %20, align 4
  %23 = load i32, ptr %16, align 4
  %24 = icmp sgt i32 %23, 0
  br i1 %24, label %.lr.ph.preheader, label %._crit_edge

.lr.ph.preheader:                                 ; preds = %19
  %wide.trip.count = zext nneg i32 %23 to i64
  br label %.lr.ph

.lr.ph:                                           ; preds = %.lr.ph.preheader, %.lr.ph
  %indvars.iv = phi i64 [ 0, %.lr.ph.preheader ], [ %indvars.iv.next, %.lr.ph ]
  %.05357 = phi i32 [ 0, %.lr.ph.preheader ], [ %spec.select, %.lr.ph ]
  %25 = getelementptr inbounds nuw %union.QueryItem, ptr %21, i64 %indvars.iv
  %26 = load i8, ptr %25, align 4
  %27 = icmp eq i8 %26, 1
  %28 = zext i1 %27 to i32
  %spec.select = add i32 %.05357, %28
  %indvars.iv.next = add nuw nsw i64 %indvars.iv, 1
  %exitcond.not = icmp eq i64 %indvars.iv.next, %wide.trip.count
  br i1 %exitcond.not, label %._crit_edge, label %.lr.ph, !llvm.loop !6

._crit_edge:                                      ; preds = %.lr.ph, %19
  %.053.lcssa = phi i32 [ 0, %19 ], [ %spec.select, %.lr.ph ]
  store i32 %.053.lcssa, ptr %7, align 4
  %29 = sext i32 %.053.lcssa to i64
  %30 = shl nsw i64 %29, 3
  %31 = tail call ptr @palloc(i64 noundef %30) #6
  %32 = tail call ptr @palloc(i64 noundef %29) #6
  store ptr %32, ptr %10, align 8
  %33 = tail call ptr @palloc(i64 noundef %30) #6
  store ptr %33, ptr %13, align 8
  %34 = load i32, ptr %16, align 4
  %35 = sext i32 %34 to i64
  %36 = shl nsw i64 %35, 2
  %37 = tail call ptr @palloc0(i64 noundef %36) #6
  %38 = load i32, ptr %16, align 4
  %39 = icmp sgt i32 %38, 0
  br i1 %39, label %.lr.ph62, label %.loopexit

.lr.ph62:                                         ; preds = %._crit_edge, %65
  %40 = phi i32 [ %66, %65 ], [ %38, %._crit_edge ]
  %indvars.iv64 = phi i64 [ %indvars.iv.next65, %65 ], [ 0, %._crit_edge ]
  %.259 = phi i32 [ %.3, %65 ], [ 0, %._crit_edge ]
  %41 = getelementptr inbounds nuw %union.QueryItem, ptr %21, i64 %indvars.iv64
  %42 = load i8, ptr %41, align 4
  %43 = icmp eq i8 %42, 1
  br i1 %43, label %44, label %65

44:                                               ; preds = %.lr.ph62
  %45 = sext i32 %40 to i64
  %46 = mul nsw i64 %45, 12
  %47 = getelementptr inbounds nuw i8, ptr %21, i64 %46
  %48 = getelementptr inbounds nuw i8, ptr %41, i64 8
  %49 = load i32, ptr %48, align 4
  %50 = lshr i32 %49, 12
  %51 = zext nneg i32 %50 to i64
  %52 = getelementptr inbounds nuw i8, ptr %47, i64 %51
  %53 = and i32 %49, 4095
  %54 = tail call ptr @cstring_to_text_with_len(ptr noundef nonnull %52, i32 noundef %53) #6
  %55 = ptrtoint ptr %54 to i64
  %56 = sext i32 %.259 to i64
  %57 = getelementptr inbounds i64, ptr %31, i64 %56
  store i64 %55, ptr %57, align 8
  %58 = getelementptr inbounds nuw i8, ptr %41, i64 2
  %59 = load i8, ptr %58, align 2, !range !7, !noundef !8
  %60 = getelementptr inbounds i8, ptr %32, i64 %56
  store i8 %59, ptr %60, align 1
  %61 = load ptr, ptr %13, align 8
  %62 = getelementptr inbounds ptr, ptr %61, i64 %56
  store ptr %37, ptr %62, align 8
  %63 = getelementptr inbounds nuw i32, ptr %37, i64 %indvars.iv64
  store i32 %.259, ptr %63, align 4
  %64 = add i32 %.259, 1
  %.pre = load i32, ptr %16, align 4
  br label %65

65:                                               ; preds = %.lr.ph62, %44
  %66 = phi i32 [ %.pre, %44 ], [ %40, %.lr.ph62 ]
  %.3 = phi i32 [ %64, %44 ], [ %.259, %.lr.ph62 ]
  %indvars.iv.next65 = add nuw nsw i64 %indvars.iv64, 1
  %67 = sext i32 %66 to i64
  %68 = icmp slt i64 %indvars.iv.next65, %67
  br i1 %68, label %.lr.ph62, label %.loopexit, !llvm.loop !9

.loopexit:                                        ; preds = %65, %._crit_edge, %1
  %.0 = phi ptr [ null, %1 ], [ %31, %._crit_edge ], [ %31, %65 ]
  %69 = load i64, ptr %2, align 8
  %.not = icmp eq i64 %3, %69
  br i1 %.not, label %71, label %70

70:                                               ; preds = %.loopexit
  tail call void @pfree(ptr noundef nonnull %4) #6
  br label %71

71:                                               ; preds = %70, %.loopexit
  %72 = ptrtoint ptr %.0 to i64
  ret i64 %72
}